; Function Attrs: nounwind uwtable
define dso_local void @jsonpath_yypop_buffer_state(ptr noundef captures(none) %0) local_unnamed_addr #0 {
  %2 = getelementptr inbounds nuw i8, ptr %0, i64 40
  %3 = load ptr, ptr %2, align 8
  %.not = icmp eq ptr %3, null
  br i1 %.not, label %42, label %4

4:                                                ; preds = %1
  %5 = getelementptr inbounds nuw i8, ptr %0, i64 24
  %6 = load i64, ptr %5, align 8
  %7 = getelementptr inbounds nuw ptr, ptr %3, i64 %6
  %8 = load ptr, ptr %7, align 8
  %.not20 = icmp eq ptr %8, null
  br i1 %.not20, label %42, label %.thread.i

.thread.i:                                        ; preds = %4
  store ptr null, ptr %7, align 8
  %9 = getelementptr inbounds nuw i8, ptr %8, i64 32
  %10 = load i32, ptr %9, align 8
  %.not15.i = icmp eq i32 %10, 0
  br i1 %.not15.i, label %jsonpath_yy_delete_buffer.exit, label %11

11:                                               ; preds = %.thread.i
  %12 = getelementptr inbounds nuw i8, ptr %8, i64 8
  %13 = load ptr, ptr %12, align 8
  %.not.i.i = icmp eq ptr %13, null
  br i1 %.not.i.i, label %jsonpath_yy_delete_buffer.exit, label %14

14:                                               ; preds = %11
  tail call void @pfree(ptr noundef nonnull %13) #17
  br label %jsonpath_yy_delete_buffer.exit

jsonpath_yy_delete_buffer.exit:                   ; preds = %.thread.i, %11, %14
  tail call void @pfree(ptr noundef nonnull %8) #17
  %15 = load ptr, ptr %2, align 8
  %16 = load i64, ptr %5, align 8
  %17 = getelementptr inbounds nuw ptr, ptr %15, i64 %16
  store ptr null, ptr %17, align 8
  %18 = load i64, ptr %5, align 8
  %.not21 = icmp eq i64 %18, 0
  br i1 %.not21, label %21, label %19

19:                                               ; preds = %jsonpath_yy_delete_buffer.exit
  %20 = add i64 %18, -1
  store i64 %20, ptr %5, align 8
  br label %21

21:                                               ; preds = %19, %jsonpath_yy_delete_buffer.exit
  %22 = phi i64 [ %20, %19 ], [ 0, %jsonpath_yy_delete_buffer.exit ]
  %23 = load ptr, ptr %2, align 8
  %.not22 = icmp eq ptr %23, null
  br i1 %.not22, label %42, label %24

24:                                               ; preds = %21
  %25 = getelementptr inbounds nuw ptr, ptr %23, i64 %22
  %26 = load ptr, ptr %25, align 8
  %.not23 = icmp eq ptr %26, null
  br i1 %.not23, label %42, label %27

27:                                               ; preds = %24
  %28 = getelementptr inbounds nuw i8, ptr %26, i64 28
  %29 = load i32, ptr %28, align 4
  %30 = getelementptr inbounds nuw i8, ptr %0, i64 52
  store i32 %29, ptr %30, align 4
  %31 = load ptr, ptr %25, align 8
  %32 = getelementptr inbounds nuw i8, ptr %31, i64 16
  %33 = load ptr, ptr %32, align 8
  %34 = getelementptr inbounds nuw i8, ptr %0, i64 64
  store ptr %33, ptr %34, align 8
  %35 = getelementptr inbounds nuw i8, ptr %0, i64 128
  store ptr %33, ptr %35, align 8
  %36 = load ptr, ptr %25, align 8
  %37 = load ptr, ptr %36, align 8
  %38 = getelementptr inbounds nuw i8, ptr %0, i64 8
  store ptr %37, ptr %38, align 8
  %39 = load i8, ptr %33, align 1
  %40 = getelementptr inbounds nuw i8, ptr %0, i64 48
  store i8 %39, ptr %40, align 8
  %41 = getelementptr inbounds nuw i8, ptr %0, i64 80
  store i32 1, ptr %41, align 8
  br label %42

42:                                               ; preds = %24, %27, %21, %4, %1
  ret void
}